; Function Attrs: nounwind uwtable
define dso_local ptr @pg_server_to_client(ptr noundef %0, i32 noundef %1) local_unnamed_addr #0 {
  %3 = load ptr, ptr @ClientEncoding, align 8
  %4 = getelementptr inbounds nuw i8, ptr %3, i64 8
  %5 = load i32, ptr %4, align 8
  %6 = icmp slt i32 %1, 1
  br i1 %6, label %pg_server_to_any.exit, label %7

7:                                                ; preds = %2
  %8 = load ptr, ptr @DatabaseEncoding, align 8
  %9 = getelementptr inbounds nuw i8, ptr %8, i64 8
  %10 = load i32, ptr %9, align 8
  %11 = icmp eq i32 %5, %10
  %12 = icmp eq i32 %5, 0
  %or.cond.i = or i1 %12, %11
  br i1 %or.cond.i, label %pg_server_to_any.exit, label %13

13:                                               ; preds = %7
  %14 = icmp eq i32 %10, 0
  br i1 %14, label %15, label %24

15:                                               ; preds = %13
  %16 = sext i32 %5 to i64
  %17 = getelementptr inbounds [0 x %struct.pg_wchar_tbl], ptr @pg_wchar_table, i64 0, i64 %16, i32 5
  %18 = load ptr, ptr %17, align 8
  %19 = tail call i32 %18(ptr noundef %0, i32 noundef %1) #13
  %.not.i.i = icmp eq i32 %19, %1
  br i1 %.not.i.i, label %pg_server_to_any.exit, label %20

20:                                               ; preds = %15
  %21 = sext i32 %19 to i64
  %22 = getelementptr inbounds i8, ptr %0, i64 %21
  %23 = sub i32 %1, %19
  tail call void @report_invalid_encoding(i32 noundef %5, ptr noundef %22, i32 noundef %23) #15
  unreachable

24:                                               ; preds = %13
  %25 = tail call fastcc ptr @perform_default_encoding_conversion(ptr noundef %0, i32 noundef %1, i1 noundef zeroext false)
  br label %pg_server_to_any.exit

pg_server_to_any.exit:                            ; preds = %2, %7, %15, %24
  %.0.i = phi ptr [ %25, %24 ], [ %0, %2 ], [ %0, %7 ], [ %0, %15 ]
  ret ptr %.0.i
}